; Function Attrs: mustprogress nounwind uwtable
define internal fastcc void @_ZN4ncnnL22conv3x3s1_pack1to8_avxERKNS_3MatERS0_S2_S2_RKNS_6OptionE(ptr noundef nonnull align 8 dereferenceable(72) %0, ptr noundef nonnull align 8 dereferenceable(72) %1, ptr noundef nonnull align 8 dereferenceable(72) %2, ptr noundef nonnull readonly align 8 captures(none) dereferenceable(72) %3, ptr noundef nonnull readonly align 8 captures(none) dereferenceable(64) %4) unnamed_addr #16 {
  %6 = alloca i32, align 4
  %7 = alloca i32, align 4
  %8 = alloca i32, align 4
  %9 = alloca i32, align 4
  %10 = alloca ptr, align 8
  %11 = alloca i32, align 4
  %12 = alloca i32, align 4
  %13 = tail call i32 @__kmpc_global_thread_num(ptr nonnull @2)
  call void @llvm.lifetime.start.p0(i64 4, ptr nonnull %6) #11
  %14 = getelementptr inbounds nuw i8, ptr %0, i64 56
  %15 = load i32, ptr %14, align 8, !tbaa !60
  store i32 %15, ptr %6, align 4, !tbaa !75
  call void @llvm.lifetime.start.p0(i64 4, ptr nonnull %7) #11
  %16 = getelementptr inbounds nuw i8, ptr %1, i64 44
  %17 = load i32, ptr %16, align 4, !tbaa !57
  store i32 %17, ptr %7, align 4, !tbaa !75
  call void @llvm.lifetime.start.p0(i64 4, ptr nonnull %8) #11
  %18 = getelementptr inbounds nuw i8, ptr %1, i64 48
  %19 = load i32, ptr %18, align 8, !tbaa !58
  store i32 %19, ptr %8, align 4, !tbaa !75
  call void @llvm.lifetime.start.p0(i64 4, ptr nonnull %9) #11
  %20 = getelementptr inbounds nuw i8, ptr %1, i64 56
  %21 = load i32, ptr %20, align 8, !tbaa !60
  store i32 %21, ptr %9, align 4, !tbaa !75
  call void @llvm.lifetime.start.p0(i64 8, ptr nonnull %10) #11
  %22 = load ptr, ptr %3, align 8, !tbaa !16
  store ptr %22, ptr %10, align 8, !tbaa !448
  call void @llvm.lifetime.start.p0(i64 4, ptr nonnull %11) #11
  %23 = ashr i32 %21, 1
  store i32 %23, ptr %11, align 4, !tbaa !75
  call void @llvm.lifetime.start.p0(i64 4, ptr nonnull %12) #11
  %24 = and i32 %21, -2
  store i32 %24, ptr %12, align 4, !tbaa !75
  %25 = getelementptr inbounds nuw i8, ptr %4, i64 4
  %26 = load i32, ptr %25, align 4, !tbaa !40
  tail call void @__kmpc_push_num_threads(ptr nonnull @2, i32 %13, i32 %26)
  call void (ptr, i32, ptr, ...) @__kmpc_fork_call(ptr nonnull @2, i32 8, ptr nonnull @_ZN4ncnnL22conv3x3s1_pack1to8_avxERKNS_3MatERS0_S2_S2_RKNS_6OptionE.omp_outlined, ptr nonnull %11, ptr nonnull %1, ptr nonnull %10, ptr nonnull %2, ptr nonnull %6, ptr nonnull %0, ptr nonnull %8, ptr nonnull %7)
  %27 = load i32, ptr %25, align 4, !tbaa !40
  call void @__kmpc_push_num_threads(ptr nonnull @2, i32 %13, i32 %27)
  call void (ptr, i32, ptr, ...) @__kmpc_fork_call(ptr nonnull @2, i32 9, ptr nonnull @_ZN4ncnnL22conv3x3s1_pack1to8_avxERKNS_3MatERS0_S2_S2_RKNS_6OptionE.omp_outlined.7, ptr nonnull %9, ptr nonnull %12, ptr nonnull %1, ptr nonnull %10, ptr nonnull %2, ptr nonnull %6, ptr nonnull %0, ptr nonnull %8, ptr nonnull %7)
  call void @llvm.lifetime.end.p0(i64 4, ptr nonnull %12) #11
  call void @llvm.lifetime.end.p0(i64 4, ptr nonnull %11) #11
  call void @llvm.lifetime.end.p0(i64 8, ptr nonnull %10) #11
  call void @llvm.lifetime.end.p0(i64 4, ptr nonnull %9) #11
  call void @llvm.lifetime.end.p0(i64 4, ptr nonnull %8) #11
  call void @llvm.lifetime.end.p0(i64 4, ptr nonnull %7) #11
  call void @llvm.lifetime.end.p0(i64 4, ptr nonnull %6) #11
  ret void
}